; Function Attrs: nounwind uwtable
define internal range(i32 0, 2) i32 @test_validate_msg_signature_sender_cert_extracert() #0 {
  %1 = tail call fastcc ptr @set_up(ptr noundef nonnull @.str.54)
  %2 = icmp eq ptr %1, null
  br i1 %2, label %40, label %3

3:                                                ; preds = %0
  %4 = getelementptr inbounds nuw i8, ptr %1, i64 8
  store i32 1, ptr %4, align 8, !tbaa !24
  %5 = load ptr, ptr @ir_protected_2_extracerts, align 8, !tbaa !23
  %6 = load ptr, ptr @libctx, align 8, !tbaa !13
  %7 = tail call ptr @load_pkimsg(ptr noundef %5, ptr noundef %6) #7
  %8 = getelementptr inbounds nuw i8, ptr %1, i64 24
  store ptr %7, ptr %8, align 8, !tbaa !27
  %9 = tail call i32 @test_ptr(ptr noundef nonnull @.str.14, i32 noundef 335, ptr noundef nonnull @.str.83, ptr noundef %7) #7
  %.not = icmp eq i32 %9, 0
  br i1 %.not, label %.thread, label %10

10:                                               ; preds = %3
  %11 = getelementptr inbounds nuw i8, ptr %1, i64 16
  %12 = load ptr, ptr %11, align 8, !tbaa !28
  %13 = load ptr, ptr @instaca_cert, align 8, !tbaa !4
  %14 = tail call ptr @OSSL_CMP_CTX_get0_trustedStore(ptr noundef %12) #7
  %15 = tail call i32 @X509_STORE_add_cert(ptr noundef %14, ptr noundef %13) #7
  %.not14 = icmp eq i32 %15, 0
  br i1 %.not14, label %.thread, label %18

.thread:                                          ; preds = %3, %10
  %16 = load ptr, ptr %8, align 8, !tbaa !27
  tail call void @OSSL_CMP_MSG_free(ptr noundef %16) #7
  %17 = getelementptr inbounds nuw i8, ptr %1, i64 16
  br label %.sink.split

18:                                               ; preds = %10
  %19 = load ptr, ptr %8, align 8, !tbaa !27
  %20 = getelementptr inbounds nuw i8, ptr %19, i64 24
  %21 = load ptr, ptr %20, align 8, !tbaa !30
  %22 = tail call ptr @OPENSSL_sk_value(ptr noundef %21, i32 noundef 1) #7
  %23 = getelementptr inbounds nuw i8, ptr %1, i64 32
  store ptr %22, ptr %23, align 8, !tbaa !29
  %24 = load i32, ptr %4, align 8, !tbaa !24
  %25 = load ptr, ptr %11, align 8, !tbaa !28
  %26 = load ptr, ptr %8, align 8, !tbaa !27
  %27 = tail call i32 @ossl_cmp_msg_check_update(ptr noundef %25, ptr noundef %26, ptr noundef null, i32 noundef 0) #7
  %28 = tail call i32 @test_int_eq(ptr noundef nonnull @.str.14, i32 noundef 139, ptr noundef nonnull @.str.75, ptr noundef nonnull @.str.78, i32 noundef %24, i32 noundef %27) #7
  %29 = load ptr, ptr %11, align 8, !tbaa !28
  %30 = tail call ptr @OSSL_CMP_CTX_get0_validatedSrvCert(ptr noundef %29) #7
  %.not.i = icmp eq i32 %28, 0
  br i1 %.not.i, label %execute_validate_msg_test.exit, label %31

31:                                               ; preds = %18
  %32 = load i32, ptr %4, align 8, !tbaa !24
  %.not7.i = icmp eq i32 %32, 0
  br i1 %.not7.i, label %execute_validate_msg_test.exit, label %33

33:                                               ; preds = %31
  %34 = load ptr, ptr %23, align 8, !tbaa !29
  %35 = tail call i32 @test_ptr_eq(ptr noundef nonnull @.str.14, i32 noundef 142, ptr noundef nonnull @.str.79, ptr noundef nonnull @.str.80, ptr noundef %30, ptr noundef %34) #7
  %36 = icmp ne i32 %35, 0
  %37 = zext i1 %36 to i32
  br label %execute_validate_msg_test.exit

execute_validate_msg_test.exit:                   ; preds = %18, %31, %33
  %38 = phi i32 [ 0, %18 ], [ 1, %31 ], [ %37, %33 ]
  %39 = load ptr, ptr %8, align 8, !tbaa !27
  tail call void @OSSL_CMP_MSG_free(ptr noundef %39) #7
  br label %.sink.split

.sink.split:                                      ; preds = %execute_validate_msg_test.exit, %.thread
  %.sink.in = phi ptr [ %17, %.thread ], [ %11, %execute_validate_msg_test.exit ]
  %.012.ph = phi i32 [ 0, %.thread ], [ %38, %execute_validate_msg_test.exit ]
  %.sink = load ptr, ptr %.sink.in, align 8, !tbaa !28
  tail call void @OSSL_CMP_CTX_free(ptr noundef %.sink) #7
  tail call void @CRYPTO_free(ptr noundef nonnull %1, ptr noundef nonnull @.str.14, i32 noundef 47) #7
  br label %40

40:                                               ; preds = %.sink.split, %0
  %.012 = phi i32 [ 0, %0 ], [ %.012.ph, %.sink.split ]
  ret i32 %.012
}